target datalayout = "e-m:e-p270:32:32-p271:32:32-p272:64:64-i64:64-i128:128-f80:128-n8:16:32:64-S128"
target triple = "x86_64-pc-linux-gnu"

; Function Attrs: nounwind uwtable
define internal i32 @php_iptc_get1(ptr noundef %0, i32 noundef %1, ptr noundef %2) #0 {
  %4 = alloca i32, align 4
  %5 = alloca ptr, align 8
  %6 = alloca i32, align 4
  %7 = alloca ptr, align 8
  %8 = alloca i32, align 4
  %9 = alloca i8, align 1
  store ptr %0, ptr %5, align 8
  store i32 %1, ptr %6, align 4
  store ptr %2, ptr %7, align 8
  %10 = load ptr, ptr %5, align 8
  %11 = call i32 @getc(ptr noundef %10)
  store i32 %11, ptr %8, align 4
  %12 = load i32, ptr %8, align 4
  %13 = icmp eq i32 %12, -1
  br i1 %13, label %14, label %15

14:                                               ; preds = %3
  store i32 -1, ptr %4, align 4
  br label %33

15:                                               ; preds = %3
  %16 = load i32, ptr %6, align 4
  %17 = icmp sgt i32 %16, 0
  br i1 %17, label %18, label %22

18:                                               ; preds = %15
  %19 = load i32, ptr %8, align 4
  %20 = trunc i32 %19 to i8
  store i8 %20, ptr %9, align 1
  %21 = call i64 @php_output_write(ptr noundef %9, i64 noundef 1)
  br label %22

22:                                               ; preds = %18, %15
  %23 = load ptr, ptr %7, align 8
  %24 = icmp ne ptr %23, null
  br i1 %24, label %25, label %31

25:                                               ; preds = %22
  %26 = load i32, ptr %8, align 4
  %27 = trunc i32 %26 to i8
  %28 = load ptr, ptr %7, align 8
  %29 = load ptr, ptr %28, align 8
  %30 = getelementptr inbounds i8, ptr %29, i32 1
  store ptr %30, ptr %28, align 8
  store i8 %27, ptr %29, align 1
  br label %31

31:                                               ; preds = %25, %22
  %32 = load i32, ptr %8, align 4
  store i32 %32, ptr %4, align 4
  br label %33

33:                                               ; preds = %31, %14
  %34 = load i32, ptr %4, align 4
  ret i32 %34
}

; Function Attrs: nounwind uwtable
define internal i32 @php_iptc_skip_variable(ptr noundef %0, i32 noundef %1, ptr noundef %2) #0 {
  %4 = alloca i32, align 4
  %5 = alloca ptr, align 8
  %6 = alloca i32, align 4
  %7 = alloca ptr, align 8
  %8 = alloca i32, align 4
  %9 = alloca i32, align 4
  %10 = alloca i32, align 4
  store ptr %0, ptr %5, align 8
  store i32 %1, ptr %6, align 4
  store ptr %2, ptr %7, align 8
  %11 = load ptr, ptr %5, align 8
  %12 = load i32, ptr %6, align 4
  %13 = load ptr, ptr %7, align 8
  %14 = call i32 @php_iptc_get1(ptr noundef %11, i32 noundef %12, ptr noundef %13)
  store i32 %14, ptr %9, align 4
  %15 = icmp eq i32 %14, -1
  br i1 %15, label %16, label %17

16:                                               ; preds = %3
  store i32 217, ptr %4, align 4
  br label %48

17:                                               ; preds = %3
  %18 = load ptr, ptr %5, align 8
  %19 = load i32, ptr %6, align 4
  %20 = load ptr, ptr %7, align 8
  %21 = call i32 @php_iptc_get1(ptr noundef %18, i32 noundef %19, ptr noundef %20)
  store i32 %21, ptr %10, align 4
  %22 = icmp eq i32 %21, -1
  br i1 %22, label %23, label %24

23:                                               ; preds = %17
  store i32 217, ptr %4, align 4
  br label %48

24:                                               ; preds = %17
  %25 = load i32, ptr %9, align 4
  %26 = trunc i32 %25 to i8
  %27 = zext i8 %26 to i32
  %28 = shl i32 %27, 8
  %29 = load i32, ptr %10, align 4
  %30 = trunc i32 %29 to i8
  %31 = zext i8 %30 to i32
  %32 = add nsw i32 %28, %31
  store i32 %32, ptr %8, align 4
  %33 = load i32, ptr %8, align 4
  %34 = sub i32 %33, 2
  store i32 %34, ptr %8, align 4
  br label %35

35:                                               ; preds = %46, %24
  %36 = load i32, ptr %8, align 4
  %37 = add i32 %36, -1
  store i32 %37, ptr %8, align 4
  %38 = icmp ne i32 %36, 0
  br i1 %38, label %39, label %47

39:                                               ; preds = %35
  %40 = load ptr, ptr %5, align 8
  %41 = load i32, ptr %6, align 4
  %42 = load ptr, ptr %7, align 8
  %43 = call i32 @php_iptc_get1(ptr noundef %40, i32 noundef %41, ptr noundef %42)
  %44 = icmp eq i32 %43, -1
  br i1 %44, label %45, label %46

45:                                               ; preds = %39
  store i32 217, ptr %4, align 4
  br label %48

46:                                               ; preds = %39
  br label %35

47:                                               ; preds = %35
  store i32 0, ptr %4, align 4
  br label %48

48:                                               ; preds = %47, %45, %23, %16
  %49 = load i32, ptr %4, align 4
  ret i32 %49
}