; Function Attrs: nounwind uwtable
define internal fastcc void @php_iptc_skip_variable(ptr nocapture noundef %0, i32 noundef %1, ptr noundef %2) unnamed_addr #0 {
  %4 = alloca i8, align 1
  %5 = alloca i8, align 1
  %6 = alloca i8, align 1
  call void @llvm.lifetime.start.p0(i64 1, ptr nonnull %6)
  %7 = tail call i32 @getc(ptr noundef %0)
  %8 = icmp eq i32 %7, -1
  br i1 %8, label %php_iptc_get1.exit, label %9

9:                                                ; preds = %3
  %10 = icmp sgt i32 %1, 0
  br i1 %10, label %11, label %14

11:                                               ; preds = %9
  %12 = trunc i32 %7 to i8
  store i8 %12, ptr %6, align 1
  %13 = call i64 @php_output_write(ptr noundef nonnull %6, i64 noundef 1) #10
  br label %14

14:                                               ; preds = %11, %9
  %.not.i = icmp eq ptr %2, null
  br i1 %.not.i, label %19, label %15

15:                                               ; preds = %14
  %16 = trunc i32 %7 to i8
  %17 = load ptr, ptr %2, align 8
  %18 = getelementptr inbounds i8, ptr %17, i64 1
  store ptr %18, ptr %2, align 8
  store i8 %16, ptr %17, align 1
  br label %19

php_iptc_get1.exit:                               ; preds = %3
  call void @llvm.lifetime.end.p0(i64 1, ptr nonnull %6)
  br label %.loopexit

19:                                               ; preds = %14, %15
  call void @llvm.lifetime.end.p0(i64 1, ptr nonnull %6)
  call void @llvm.lifetime.start.p0(i64 1, ptr nonnull %5)
  %20 = call i32 @getc(ptr noundef %0)
  %21 = icmp eq i32 %20, -1
  br i1 %21, label %php_iptc_get1.exit17, label %22

22:                                               ; preds = %19
  br i1 %10, label %23, label %26

23:                                               ; preds = %22
  %24 = trunc i32 %20 to i8
  store i8 %24, ptr %5, align 1
  %25 = call i64 @php_output_write(ptr noundef nonnull %5, i64 noundef 1) #10
  br label %26

26:                                               ; preds = %23, %22
  br i1 %.not.i, label %31, label %27

27:                                               ; preds = %26
  %28 = trunc i32 %20 to i8
  %29 = load ptr, ptr %2, align 8
  %30 = getelementptr inbounds i8, ptr %29, i64 1
  store ptr %30, ptr %2, align 8
  store i8 %28, ptr %29, align 1
  br label %31

php_iptc_get1.exit17:                             ; preds = %19
  call void @llvm.lifetime.end.p0(i64 1, ptr nonnull %5)
  br label %.loopexit

31:                                               ; preds = %26, %27
  call void @llvm.lifetime.end.p0(i64 1, ptr nonnull %5)
  %32 = shl i32 %7, 8
  %33 = and i32 %32, 65280
  %34 = and i32 %20, 255
  %35 = add nsw i32 %33, -2
  %36 = add nsw i32 %35, %34
  %.not20 = icmp eq i32 %36, 0
  br i1 %.not20, label %.loopexit, label %.lr.ph

.lr.ph:                                           ; preds = %31
  br i1 %10, label %.lr.ph.split.us, label %.lr.ph.split

.lr.ph.split.us:                                  ; preds = %.lr.ph
  br i1 %.not.i, label %.lr.ph.split.us.split.us, label %.lr.ph.split.us.split

.lr.ph.split.us.split.us:                         ; preds = %.lr.ph.split.us, %php_iptc_get1.exit19.us.us
  %.01321.us.us = phi i32 [ %39, %php_iptc_get1.exit19.us.us ], [ %36, %.lr.ph.split.us ]
  call void @llvm.lifetime.start.p0(i64 1, ptr nonnull %4)
  %37 = call i32 @getc(ptr noundef %0)
  %38 = icmp eq i32 %37, -1
  br i1 %38, label %php_iptc_get1.exit19.thread, label %php_iptc_get1.exit19.us.us

php_iptc_get1.exit19.us.us:                       ; preds = %.lr.ph.split.us.split.us
  %39 = add i32 %.01321.us.us, -1
  %40 = trunc i32 %37 to i8
  store i8 %40, ptr %4, align 1
  %41 = call i64 @php_output_write(ptr noundef nonnull %4, i64 noundef 1) #10
  call void @llvm.lifetime.end.p0(i64 1, ptr nonnull %4)
  %.not.us.us = icmp eq i32 %39, 0
  br i1 %.not.us.us, label %.loopexit, label %.lr.ph.split.us.split.us

.lr.ph.split.us.split:                            ; preds = %.lr.ph.split.us, %php_iptc_get1.exit19.us
  %.01321.us = phi i32 [ %44, %php_iptc_get1.exit19.us ], [ %36, %.lr.ph.split.us ]
  call void @llvm.lifetime.start.p0(i64 1, ptr nonnull %4)
  %42 = call i32 @getc(ptr noundef %0)
  %43 = icmp eq i32 %42, -1
  br i1 %43, label %php_iptc_get1.exit19.thread, label %php_iptc_get1.exit19.us

php_iptc_get1.exit19.us:                          ; preds = %.lr.ph.split.us.split
  %44 = add i32 %.01321.us, -1
  %45 = trunc i32 %42 to i8
  store i8 %45, ptr %4, align 1
  %46 = call i64 @php_output_write(ptr noundef nonnull %4, i64 noundef 1) #10
  %47 = load ptr, ptr %2, align 8
  %48 = getelementptr inbounds i8, ptr %47, i64 1
  store ptr %48, ptr %2, align 8
  store i8 %45, ptr %47, align 1
  call void @llvm.lifetime.end.p0(i64 1, ptr nonnull %4)
  %.not.us = icmp eq i32 %44, 0
  br i1 %.not.us, label %.loopexit, label %.lr.ph.split.us.split

.lr.ph.split:                                     ; preds = %.lr.ph
  br i1 %.not.i, label %.lr.ph.split.split.us, label %.lr.ph.split.split

.lr.ph.split.split.us:                            ; preds = %.lr.ph.split, %php_iptc_get1.exit19.us23
  %.01321.us22 = phi i32 [ %51, %php_iptc_get1.exit19.us23 ], [ %36, %.lr.ph.split ]
  call void @llvm.lifetime.start.p0(i64 1, ptr nonnull %4)
  %49 = call i32 @getc(ptr noundef %0)
  %50 = icmp eq i32 %49, -1
  br i1 %50, label %php_iptc_get1.exit19.thread, label %php_iptc_get1.exit19.us23

php_iptc_get1.exit19.us23:                        ; preds = %.lr.ph.split.split.us
  %51 = add i32 %.01321.us22, -1
  call void @llvm.lifetime.end.p0(i64 1, ptr nonnull %4)
  %.not.us24 = icmp eq i32 %51, 0
  br i1 %.not.us24, label %.loopexit, label %.lr.ph.split.split.us

.lr.ph.split.split:                               ; preds = %.lr.ph.split, %php_iptc_get1.exit19
  %.01321 = phi i32 [ %54, %php_iptc_get1.exit19 ], [ %36, %.lr.ph.split ]
  call void @llvm.lifetime.start.p0(i64 1, ptr nonnull %4)
  %52 = call i32 @getc(ptr noundef %0)
  %53 = icmp eq i32 %52, -1
  br i1 %53, label %php_iptc_get1.exit19.thread, label %php_iptc_get1.exit19

php_iptc_get1.exit19.thread:                      ; preds = %.lr.ph.split.split, %.lr.ph.split.split.us, %.lr.ph.split.us.split, %.lr.ph.split.us.split.us
  call void @llvm.lifetime.end.p0(i64 1, ptr nonnull %4)
  br label %.loopexit

php_iptc_get1.exit19:                             ; preds = %.lr.ph.split.split
  %54 = add i32 %.01321, -1
  %55 = trunc i32 %52 to i8
  %56 = load ptr, ptr %2, align 8
  %57 = getelementptr inbounds i8, ptr %56, i64 1
  store ptr %57, ptr %2, align 8
  store i8 %55, ptr %56, align 1
  call void @llvm.lifetime.end.p0(i64 1, ptr nonnull %4)
  %.not = icmp eq i32 %54, 0
  br i1 %.not, label %.loopexit, label %.lr.ph.split.split

.loopexit:                                        ; preds = %php_iptc_get1.exit19, %php_iptc_get1.exit19.us23, %php_iptc_get1.exit19.us, %php_iptc_get1.exit19.us.us, %31, %php_iptc_get1.exit19.thread, %php_iptc_get1.exit17, %php_iptc_get1.exit
  ret void
}